; Function Attrs: mustprogress uwtable
define noundef range(i32 0, 2) i32 @_ZN6LibRaw10minolta_z2Ev(ptr noundef nonnull readonly align 8 captures(none) dereferenceable(767680) %0) local_unnamed_addr #0 align 2 {
  %2 = alloca [424 x i8], align 16
  call void @llvm.lifetime.start.p0(i64 424, ptr nonnull %2) #13
  %3 = getelementptr inbounds nuw i8, ptr %0, i64 381416
  %4 = load ptr, ptr %3, align 8, !tbaa !6
  %5 = load ptr, ptr %4, align 8, !tbaa !71
  %6 = getelementptr inbounds nuw i8, ptr %5, i64 32
  %7 = load ptr, ptr %6, align 8
  %8 = tail call noundef i32 %7(ptr noundef nonnull align 8 dereferenceable(8) %4, i64 noundef -424, i32 noundef 2)
  %9 = load ptr, ptr %3, align 8, !tbaa !6
  %10 = load ptr, ptr %9, align 8, !tbaa !71
  %11 = getelementptr inbounds nuw i8, ptr %10, i64 24
  %12 = load ptr, ptr %11, align 8
  %13 = call noundef i32 %12(ptr noundef nonnull align 8 dereferenceable(8) %9, ptr noundef nonnull %2, i64 noundef 1, i64 noundef 424)
  br label %14

14:                                               ; preds = %1, %14
  %indvars.iv = phi i64 [ 0, %1 ], [ %indvars.iv.next, %14 ]
  %.07 = phi i32 [ 0, %1 ], [ %spec.select, %14 ]
  %15 = getelementptr inbounds nuw [424 x i8], ptr %2, i64 0, i64 %indvars.iv
  %16 = load i8, ptr %15, align 1, !tbaa !75
  %.not = icmp ne i8 %16, 0
  %17 = zext i1 %.not to i32
  %spec.select = add nuw nsw i32 %.07, %17
  %indvars.iv.next = add nuw nsw i64 %indvars.iv, 1
  %exitcond.not = icmp eq i64 %indvars.iv.next, 424
  br i1 %exitcond.not, label %18, label %14, !llvm.loop !81

18:                                               ; preds = %14
  %19 = icmp samesign ugt i32 %spec.select, 20
  %20 = zext i1 %19 to i32
  call void @llvm.lifetime.end.p0(i64 424, ptr nonnull %2) #13
  ret i32 %20
}